target datalayout = "e-m:e-p270:32:32-p271:32:32-p272:64:64-i64:64-i128:128-f80:128-n8:16:32:64-S128"
target triple = "x86_64-pc-linux-gnu"

@.str = private unnamed_addr constant [34 x i8] c"../openssl/crypto/dsa/dsa_pmeth.c\00", align 1
@.str.1 = private unnamed_addr constant [18 x i8] c"dsa_paramgen_bits\00", align 1
@.str.2 = private unnamed_addr constant [20 x i8] c"dsa_paramgen_q_bits\00", align 1
@.str.3 = private unnamed_addr constant [16 x i8] c"dsa_paramgen_md\00", align 1
@__func__.pkey_dsa_ctrl_str = private unnamed_addr constant [18 x i8] c"pkey_dsa_ctrl_str\00", align 1

; Function Attrs: inlinehint nounwind willreturn memory(read) uwtable
define available_externally i32 @atoi(ptr noundef nonnull %0) #4 {
  %2 = alloca ptr, align 8
  store ptr %0, ptr %2, align 8, !tbaa !38
  %3 = load ptr, ptr %2, align 8, !tbaa !38
  %4 = call i64 @strtol(ptr noundef %3, ptr noundef null, i32 noundef 10) #6
  %5 = trunc i64 %4 to i32
  ret i32 %5
}

; Function Attrs: nounwind uwtable
define internal i32 @pkey_dsa_ctrl_str(ptr noundef %0, ptr noundef %1, ptr noundef %2) #0 {
  %4 = alloca i32, align 4
  %5 = alloca ptr, align 8
  %6 = alloca ptr, align 8
  %7 = alloca ptr, align 8
  %8 = alloca i32, align 4
  %9 = alloca i32, align 4
  %10 = alloca ptr, align 8
  %11 = alloca i32, align 4
  store ptr %0, ptr %5, align 8, !tbaa !3
  store ptr %1, ptr %6, align 8, !tbaa !38
  store ptr %2, ptr %7, align 8, !tbaa !38
  %12 = load ptr, ptr %6, align 8, !tbaa !38
  %13 = call i32 @strcmp(ptr noundef %12, ptr noundef @.str.1) #7
  %14 = icmp eq i32 %13, 0
  br i1 %14, label %15, label %21

15:                                               ; preds = %3
  call void @llvm.lifetime.start.p0(i64 4, ptr %8) #6
  %16 = load ptr, ptr %7, align 8, !tbaa !38
  %17 = call i32 @atoi(ptr noundef %16) #7
  store i32 %17, ptr %8, align 4, !tbaa !36
  %18 = load ptr, ptr %5, align 8, !tbaa !3
  %19 = load i32, ptr %8, align 4, !tbaa !36
  %20 = call i32 @EVP_PKEY_CTX_set_dsa_paramgen_bits(ptr noundef %18, i32 noundef %19)
  store i32 %20, ptr %4, align 4
  call void @llvm.lifetime.end.p0(i64 4, ptr %8) #6
  br label %47

21:                                               ; preds = %3
  %22 = load ptr, ptr %6, align 8, !tbaa !38
  %23 = call i32 @strcmp(ptr noundef %22, ptr noundef @.str.2) #7
  %24 = icmp eq i32 %23, 0
  br i1 %24, label %25, label %31

25:                                               ; preds = %21
  call void @llvm.lifetime.start.p0(i64 4, ptr %9) #6
  %26 = load ptr, ptr %7, align 8, !tbaa !38
  %27 = call i32 @atoi(ptr noundef %26) #7
  store i32 %27, ptr %9, align 4, !tbaa !36
  %28 = load ptr, ptr %5, align 8, !tbaa !3
  %29 = load i32, ptr %9, align 4, !tbaa !36
  %30 = call i32 @EVP_PKEY_CTX_set_dsa_paramgen_q_bits(ptr noundef %28, i32 noundef %29)
  store i32 %30, ptr %4, align 4
  call void @llvm.lifetime.end.p0(i64 4, ptr %9) #6
  br label %47

31:                                               ; preds = %21
  %32 = load ptr, ptr %6, align 8, !tbaa !38
  %33 = call i32 @strcmp(ptr noundef %32, ptr noundef @.str.3) #7
  %34 = icmp eq i32 %33, 0
  br i1 %34, label %35, label %46

35:                                               ; preds = %31
  call void @llvm.lifetime.start.p0(i64 8, ptr %10) #6
  %36 = load ptr, ptr %7, align 8, !tbaa !38
  %37 = call ptr @EVP_get_digestbyname(ptr noundef %36)
  store ptr %37, ptr %10, align 8, !tbaa !42
  %38 = load ptr, ptr %10, align 8, !tbaa !42
  %39 = icmp eq ptr %38, null
  br i1 %39, label %40, label %41

40:                                               ; preds = %35
  call void @ERR_new()
  call void @ERR_set_debug(ptr noundef @.str, i32 noundef 212, ptr noundef @__func__.pkey_dsa_ctrl_str)
  call void (i32, i32, ptr, ...) @ERR_set_error(i32 noundef 10, i32 noundef 106, ptr noundef null)
  store i32 0, ptr %4, align 4
  store i32 1, ptr %11, align 4
  br label %45

41:                                               ; preds = %35
  %42 = load ptr, ptr %5, align 8, !tbaa !3
  %43 = load ptr, ptr %10, align 8, !tbaa !42
  %44 = call i32 @EVP_PKEY_CTX_set_dsa_paramgen_md(ptr noundef %42, ptr noundef %43)
  store i32 %44, ptr %4, align 4
  store i32 1, ptr %11, align 4
  br label %45

45:                                               ; preds = %41, %40
  call void @llvm.lifetime.end.p0(i64 8, ptr %10) #6
  br label %47

46:                                               ; preds = %31
  store i32 -2, ptr %4, align 4
  br label %47

47:                                               ; preds = %46, %45, %25, %15
  %48 = load i32, ptr %4, align 4
  ret i32 %48
}