; Function Attrs: nounwind uwtable
define internal i32 @pkey_dsa_ctrl_str(ptr noundef %0, ptr noundef readonly captures(none) %1, ptr noundef %2) #1 {
  %4 = tail call i32 @strcmp(ptr noundef nonnull dereferenceable(1) %1, ptr noundef nonnull dereferenceable(18) @.str.1) #8
  %5 = icmp eq i32 %4, 0
  br i1 %5, label %6, label %10

6:                                                ; preds = %3
  %7 = tail call i64 @strtol(ptr noundef nonnull captures(none) %2, ptr noundef null, i32 noundef 10) #7
  %8 = trunc i64 %7 to i32
  %9 = tail call i32 @EVP_PKEY_CTX_set_dsa_paramgen_bits(ptr noundef %0, i32 noundef %8) #7
  br label %26

10:                                               ; preds = %3
  %11 = tail call i32 @strcmp(ptr noundef nonnull dereferenceable(1) %1, ptr noundef nonnull dereferenceable(20) @.str.2) #8
  %12 = icmp eq i32 %11, 0
  br i1 %12, label %13, label %17

13:                                               ; preds = %10
  %14 = tail call i64 @strtol(ptr noundef nonnull captures(none) %2, ptr noundef null, i32 noundef 10) #7
  %15 = trunc i64 %14 to i32
  %16 = tail call i32 @EVP_PKEY_CTX_set_dsa_paramgen_q_bits(ptr noundef %0, i32 noundef %15) #7
  br label %26

17:                                               ; preds = %10
  %18 = tail call i32 @strcmp(ptr noundef nonnull dereferenceable(1) %1, ptr noundef nonnull dereferenceable(16) @.str.3) #8
  %19 = icmp eq i32 %18, 0
  br i1 %19, label %20, label %26

20:                                               ; preds = %17
  %21 = tail call ptr @EVP_get_digestbyname(ptr noundef %2) #7
  %22 = icmp eq ptr %21, null
  br i1 %22, label %23, label %24

23:                                               ; preds = %20
  tail call void @ERR_new() #7
  tail call void @ERR_set_debug(ptr noundef nonnull @.str, i32 noundef 212, ptr noundef nonnull @__func__.pkey_dsa_ctrl_str) #7
  tail call void (i32, i32, ptr, ...) @ERR_set_error(i32 noundef 10, i32 noundef 106, ptr noundef null) #7
  br label %26

24:                                               ; preds = %20
  %25 = tail call i32 @EVP_PKEY_CTX_set_dsa_paramgen_md(ptr noundef %0, ptr noundef nonnull %21) #7
  br label %26

26:                                               ; preds = %17, %23, %24, %13, %6
  %.0 = phi i32 [ %9, %6 ], [ %16, %13 ], [ 0, %23 ], [ %25, %24 ], [ -2, %17 ]
  ret i32 %.0
}